target datalayout = "e-m:e-p270:32:32-p271:32:32-p272:64:64-i64:64-i128:128-f80:128-n8:16:32:64-S128"
target triple = "x86_64-unknown-linux-gnu"

%"struct.node::AssertionInfo" = type { ptr, ptr, ptr }
%"class.node::crypto::NodeBIO" = type { %"class.node::MemoryRetainer", ptr, i64, i64, i64, i32, ptr, ptr }
%"class.node::MemoryRetainer" = type { ptr }

@_ZZN4node6crypto7NodeBIO7FromBIOEP6bio_stE4args = internal constant %"struct.node::AssertionInfo" { ptr @.str.35, ptr @.str.36, ptr @.str.37 }, align 8

; Function Attrs: mustprogress nounwind uwtable
define linkonce_odr dso_local noundef i64 @_ZNK4node6crypto7NodeBIO6LengthEv(ptr noundef nonnull align 8 dereferenceable(64) %this) #4 comdat align 2 {
entry:
  %this.addr = alloca ptr, align 8
  store ptr %this, ptr %this.addr, align 8
  %this1 = load ptr, ptr %this.addr, align 8
  %length_ = getelementptr inbounds %"class.node::crypto::NodeBIO", ptr %this1, i32 0, i32 3
  %0 = load i64, ptr %length_, align 8
  ret i64 %0
}

; Function Attrs: mustprogress nounwind uwtable
define dso_local noundef ptr @_ZN4node6crypto7NodeBIO7FromBIOEP6bio_st(ptr noundef %bio) #4 align 2 {
entry:
  %bio.addr = alloca ptr, align 8
  store ptr %bio, ptr %bio.addr, align 8
  br label %do.body

do.body:                                          ; preds = %entry
  %0 = load ptr, ptr %bio.addr, align 8
  %call = call ptr @BIO_get_data(ptr noundef %0)
  %cmp = icmp ne ptr %call, null
  %lnot = xor i1 %cmp, true
  %lnot1 = xor i1 %lnot, true
  %lnot2 = xor i1 %lnot1, true
  br i1 %lnot2, label %if.then, label %if.end

if.then:                                          ; preds = %do.body
  br label %do.body3

do.body3:                                         ; preds = %if.then
  call void @_ZN4node6AssertERKNS_13AssertionInfoE(ptr noundef nonnull align 8 dereferenceable(24) @_ZZN4node6crypto7NodeBIO7FromBIOEP6bio_stE4args)
  call void @abort() #12
  unreachable

do.end:                                           ; No predecessors!
  br label %if.end

if.end:                                           ; preds = %do.end, %do.body
  br label %do.end4

do.end4:                                          ; preds = %if.end
  %1 = load ptr, ptr %bio.addr, align 8
  %call5 = call ptr @BIO_get_data(ptr noundef %1)
  ret ptr %call5
}

; Function Attrs: mustprogress nounwind uwtable
define dso_local noundef i32 @_ZN4node6crypto7NodeBIO4GetsEP6bio_stPci(ptr noundef %bio, ptr noundef %out, i32 noundef %size) #4 align 2 {
entry:
  %retval = alloca i32, align 4
  %bio.addr = alloca ptr, align 8
  %out.addr = alloca ptr, align 8
  %size.addr = alloca i32, align 4
  %nbio = alloca ptr, align 8
  %i = alloca i32, align 4
  store ptr %bio, ptr %bio.addr, align 8
  store ptr %out, ptr %out.addr, align 8
  store i32 %size, ptr %size.addr, align 4
  %0 = load ptr, ptr %bio.addr, align 8
  %call = call noundef ptr @_ZN4node6crypto7NodeBIO7FromBIOEP6bio_st(ptr noundef %0)
  store ptr %call, ptr %nbio, align 8
  %1 = load ptr, ptr %nbio, align 8
  %call1 = call noundef i64 @_ZNK4node6crypto7NodeBIO6LengthEv(ptr noundef nonnull align 8 dereferenceable(64) %1)
  %cmp = icmp eq i64 %call1, 0
  br i1 %cmp, label %if.then, label %if.end

if.then:                                          ; preds = %entry
  store i32 0, ptr %retval, align 4
  br label %return

if.end:                                           ; preds = %entry
  %2 = load ptr, ptr %nbio, align 8
  %3 = load i32, ptr %size.addr, align 4
  %conv = sext i32 %3 to i64
  %call2 = call noundef i64 @_ZN4node6crypto7NodeBIO7IndexOfEcm(ptr noundef nonnull align 8 dereferenceable(64) %2, i8 noundef signext 10, i64 noundef %conv)
  %conv3 = trunc i64 %call2 to i32
  store i32 %conv3, ptr %i, align 4
  %4 = load i32, ptr %i, align 4
  %5 = load i32, ptr %size.addr, align 4
  %cmp4 = icmp slt i32 %4, %5
  br i1 %cmp4, label %land.lhs.true, label %if.end11

land.lhs.true:                                    ; preds = %if.end
  %6 = load i32, ptr %i, align 4
  %cmp5 = icmp sge i32 %6, 0
  br i1 %cmp5, label %land.lhs.true6, label %if.end11

land.lhs.true6:                                   ; preds = %land.lhs.true
  %7 = load i32, ptr %i, align 4
  %conv7 = sext i32 %7 to i64
  %8 = load ptr, ptr %nbio, align 8
  %call8 = call noundef i64 @_ZNK4node6crypto7NodeBIO6LengthEv(ptr noundef nonnull align 8 dereferenceable(64) %8)
  %cmp9 = icmp ult i64 %conv7, %call8
  br i1 %cmp9, label %if.then10, label %if.end11

if.then10:                                        ; preds = %land.lhs.true6
  %9 = load i32, ptr %i, align 4
  %inc = add nsw i32 %9, 1
  store i32 %inc, ptr %i, align 4
  br label %if.end11

if.end11:                                         ; preds = %if.then10, %land.lhs.true6, %land.lhs.true, %if.end
  %10 = load i32, ptr %size.addr, align 4
  %11 = load i32, ptr %i, align 4
  %cmp12 = icmp eq i32 %10, %11
  br i1 %cmp12, label %if.then13, label %if.end14

if.then13:                                        ; preds = %if.end11
  %12 = load i32, ptr %i, align 4
  %dec = add nsw i32 %12, -1
  store i32 %dec, ptr %i, align 4
  br label %if.end14

if.end14:                                         ; preds = %if.then13, %if.end11
  %13 = load ptr, ptr %nbio, align 8
  %14 = load ptr, ptr %out.addr, align 8
  %15 = load i32, ptr %i, align 4
  %conv15 = sext i32 %15 to i64
  %call16 = call noundef i64 @_ZN4node6crypto7NodeBIO4ReadEPcm(ptr noundef nonnull align 8 dereferenceable(64) %13, ptr noundef %14, i64 noundef %conv15)
  %16 = load ptr, ptr %out.addr, align 8
  %17 = load i32, ptr %i, align 4
  %idxprom = sext i32 %17 to i64
  %arrayidx = getelementptr inbounds i8, ptr %16, i64 %idxprom
  store i8 0, ptr %arrayidx, align 1
  %18 = load i32, ptr %i, align 4
  store i32 %18, ptr %retval, align 4
  br label %return

return:                                           ; preds = %if.end14, %if.then
  %19 = load i32, ptr %retval, align 4
  ret i32 %19
}