; Function Attrs: mustprogress nounwind uwtable
define dso_local noundef i32 @_ZN4node6crypto7NodeBIO4GetsEP6bio_stPci(ptr noundef %bio, ptr noundef %out, i32 noundef %size) #3 align 2 {
entry:
  %call.i = tail call ptr @BIO_get_data(ptr noundef %bio) #16
  %cmp.not.i = icmp eq ptr %call.i, null
  br i1 %cmp.not.i, label %do.body3.i, label %_ZN4node6crypto7NodeBIO7FromBIOEP6bio_st.exit

do.body3.i:                                       ; preds = %entry
  tail call void @_ZN4node6AssertERKNS_13AssertionInfoE(ptr noundef nonnull align 8 dereferenceable(24) @_ZZN4node6crypto7NodeBIO7FromBIOEP6bio_stE4args) #16
  tail call void @abort() #17
  unreachable

_ZN4node6crypto7NodeBIO7FromBIOEP6bio_st.exit:    ; preds = %entry
  %call5.i = tail call noundef ptr @BIO_get_data(ptr noundef %bio) #16
  %length_.i = getelementptr inbounds i8, ptr %call5.i, i64 24
  %0 = load i64, ptr %length_.i, align 8
  %cmp = icmp eq i64 %0, 0
  br i1 %cmp, label %return, label %if.end

if.end:                                           ; preds = %_ZN4node6crypto7NodeBIO7FromBIOEP6bio_st.exit
  %conv = sext i32 %size to i64
  %call2 = tail call noundef i64 @_ZN4node6crypto7NodeBIO7IndexOfEcm(ptr noundef nonnull align 8 dereferenceable(64) %call5.i, i8 noundef signext 10, i64 noundef %conv)
  %conv3 = trunc i64 %call2 to i32
  %cmp4 = icmp slt i32 %conv3, %size
  %cmp5 = icmp sgt i32 %conv3, -1
  %or.cond = and i1 %cmp4, %cmp5
  br i1 %or.cond, label %land.lhs.true6, label %if.end11

land.lhs.true6:                                   ; preds = %if.end
  %conv7 = and i64 %call2, 2147483647
  %1 = load i64, ptr %length_.i, align 8
  %cmp9 = icmp ult i64 %conv7, %1
  %inc = zext i1 %cmp9 to i32
  %spec.select = add nuw nsw i32 %inc, %conv3
  br label %if.end11

if.end11:                                         ; preds = %land.lhs.true6, %if.end
  %i.0 = phi i32 [ %conv3, %if.end ], [ %spec.select, %land.lhs.true6 ]
  %cmp12 = icmp eq i32 %i.0, %size
  %dec = sext i1 %cmp12 to i32
  %spec.select15 = add nsw i32 %i.0, %dec
  %conv15 = sext i32 %spec.select15 to i64
  %call16 = tail call noundef i64 @_ZN4node6crypto7NodeBIO4ReadEPcm(ptr noundef nonnull align 8 dereferenceable(64) %call5.i, ptr noundef %out, i64 noundef %conv15)
  %arrayidx = getelementptr inbounds i8, ptr %out, i64 %conv15
  store i8 0, ptr %arrayidx, align 1
  br label %return

return:                                           ; preds = %_ZN4node6crypto7NodeBIO7FromBIOEP6bio_st.exit, %if.end11
  %retval.0 = phi i32 [ %spec.select15, %if.end11 ], [ 0, %_ZN4node6crypto7NodeBIO7FromBIOEP6bio_st.exit ]
  ret i32 %retval.0
}